; Function Attrs: nounwind uwtable
define dso_local range(i32 0, 44) i32 @Curl_mime_set_subparts(ptr noundef %0, ptr noundef %1, i32 noundef %2) local_unnamed_addr #0 {
  %.not = icmp eq ptr %0, null
  br i1 %.not, label %40, label %4

4:                                                ; preds = %3
  %5 = getelementptr inbounds nuw i8, ptr %0, i64 16
  %6 = load i32, ptr %5, align 8, !tbaa !23
  %7 = icmp eq i32 %6, 4
  br i1 %7, label %8, label %12

8:                                                ; preds = %4
  %9 = getelementptr inbounds nuw i8, ptr %0, i64 56
  %10 = load ptr, ptr %9, align 8, !tbaa !19
  %11 = icmp eq ptr %10, %1
  br i1 %11, label %40, label %12

12:                                               ; preds = %8, %4
  %13 = getelementptr inbounds nuw i8, ptr %0, i64 48
  %14 = load ptr, ptr %13, align 8, !tbaa !4
  %.not.i = icmp eq ptr %14, null
  br i1 %.not.i, label %cleanup_part_content.exit, label %15

15:                                               ; preds = %12
  %16 = getelementptr inbounds nuw i8, ptr %0, i64 56
  %17 = load ptr, ptr %16, align 8, !tbaa !19
  tail call void %14(ptr noundef %17) #18
  br label %cleanup_part_content.exit

cleanup_part_content.exit:                        ; preds = %12, %15
  %18 = getelementptr inbounds nuw i8, ptr %0, i64 32
  %19 = getelementptr inbounds nuw i8, ptr %0, i64 56
  tail call void @llvm.memset.p0.i64(ptr noundef nonnull align 8 dereferenceable(24) %18, i8 0, i64 24, i1 false)
  store ptr %0, ptr %19, align 8, !tbaa !19
  %20 = getelementptr inbounds nuw i8, ptr %0, i64 24
  store ptr null, ptr %20, align 8, !tbaa !20
  %21 = getelementptr inbounds nuw i8, ptr %0, i64 64
  store ptr null, ptr %21, align 8, !tbaa !21
  %22 = getelementptr inbounds nuw i8, ptr %0, i64 112
  store i64 0, ptr %22, align 8, !tbaa !22
  %23 = getelementptr inbounds nuw i8, ptr %0, i64 152
  tail call void @llvm.memset.p0.i64(ptr noundef nonnull align 8 dereferenceable(24) %23, i8 0, i64 24, i1 false)
  store i32 0, ptr %5, align 8, !tbaa !23
  %24 = getelementptr inbounds nuw i8, ptr %0, i64 20
  %25 = load i32, ptr %24, align 4, !tbaa !24
  %26 = and i32 %25, -5
  store i32 %26, ptr %24, align 4, !tbaa !24
  %27 = getelementptr inbounds nuw i8, ptr %0, i64 432
  store i64 1, ptr %27, align 8, !tbaa !25
  %28 = getelementptr inbounds nuw i8, ptr %0, i64 120
  store i32 0, ptr %28, align 8, !tbaa !26
  %.not29 = icmp eq ptr %1, null
  br i1 %.not29, label %40, label %29

29:                                               ; preds = %cleanup_part_content.exit
  %30 = load ptr, ptr %1, align 8, !tbaa !33
  %.not30 = icmp eq ptr %30, null
  br i1 %.not30, label %31, label %40

31:                                               ; preds = %29
  %32 = load ptr, ptr %0, align 8, !tbaa !42
  %.not31 = icmp eq ptr %32, null
  br i1 %.not31, label %37, label %.preheader

.preheader:                                       ; preds = %31, %34
  %.0 = phi ptr [ %35, %34 ], [ %32, %31 ]
  %33 = load ptr, ptr %.0, align 8, !tbaa !33
  %.not32 = icmp eq ptr %33, null
  br i1 %.not32, label %.critedge, label %34

34:                                               ; preds = %.preheader
  %35 = load ptr, ptr %33, align 8, !tbaa !42
  %.not33 = icmp eq ptr %35, null
  br i1 %.not33, label %.critedge, label %.preheader, !llvm.loop !43

.critedge:                                        ; preds = %.preheader, %34
  %36 = icmp eq ptr %1, %.0
  br i1 %36, label %40, label %37

37:                                               ; preds = %.critedge, %31
  store ptr %0, ptr %1, align 8, !tbaa !33
  %38 = getelementptr inbounds nuw i8, ptr %0, i64 40
  store ptr @mime_subparts_seek, ptr %38, align 8, !tbaa !40
  %.not34 = icmp eq i32 %2, 0
  %39 = select i1 %.not34, ptr @mime_subparts_unbind, ptr @mime_subparts_free
  store ptr %39, ptr %13, align 8, !tbaa !4
  store ptr %1, ptr %19, align 8, !tbaa !19
  store i64 -1, ptr %22, align 8, !tbaa !22
  store i32 4, ptr %5, align 8, !tbaa !23
  br label %40

40:                                               ; preds = %cleanup_part_content.exit, %37, %.critedge, %29, %8, %3
  %.023 = phi i32 [ 43, %3 ], [ 0, %8 ], [ 43, %29 ], [ 43, %.critedge ], [ 0, %37 ], [ 0, %cleanup_part_content.exit ]
  ret i32 %.023
}